; ModuleID = '31/1387.c'
source_filename = "31/1387.c"
target datalayout = "e-m:e-p270:32:32-p271:32:32-p272:64:64-i64:64-f80:128-n8:16:32:64-S128"
target triple = "x86_64-pc-linux-gnu"

%struct.student = type { [88 x i8], %struct.student* }

@.str = private unnamed_addr constant [4 x i8] c"end\00", align 1

; Function Attrs: noinline nounwind uwtable
define dso_local %struct.student* @creat() #0 {
  %1 = alloca %struct.student*, align 8
  %2 = alloca %struct.student*, align 8
  %3 = alloca %struct.student*, align 8
  %4 = call noalias i8* @malloc(i64 100) #4
  %5 = bitcast i8* %4 to %struct.student*
  store %struct.student* %5, %struct.student** %2, align 8
  store %struct.student* %5, %struct.student** %1, align 8
  %6 = load %struct.student*, %struct.student** %1, align 8
  %7 = getelementptr inbounds %struct.student, %struct.student* %6, i32 0, i32 0
  %8 = getelementptr inbounds [88 x i8], [88 x i8]* %7, i64 0, i64 0
  %9 = call i32 (i8*, ...) bitcast (i32 (...)* @gets to i32 (i8*, ...)*)(i8* %8)
  %10 = load %struct.student*, %struct.student** %1, align 8
  %11 = getelementptr inbounds %struct.student, %struct.student* %10, i32 0, i32 1
  store %struct.student* null, %struct.student** %11, align 8
  br label %12

12:                                               ; preds = %18, %0
  %13 = load %struct.student*, %struct.student** %1, align 8
  %14 = getelementptr inbounds %struct.student, %struct.student* %13, i32 0, i32 0
  %15 = getelementptr inbounds [88 x i8], [88 x i8]* %14, i64 0, i64 0
  %16 = call i32 @strcmp(i8* %15, i8* getelementptr inbounds ([4 x i8], [4 x i8]* @.str, i64 0, i64 0)) #5
  %17 = icmp ne i32 %16, 0
  br i1 %17, label %18, label %29

18:                                               ; preds = %12
  %19 = load %struct.student*, %struct.student** %1, align 8
  store %struct.student* %19, %struct.student** %2, align 8
  %20 = call noalias i8* @malloc(i64 100) #4
  %21 = bitcast i8* %20 to %struct.student*
  store %struct.student* %21, %struct.student** %1, align 8
  %22 = load %struct.student*, %struct.student** %1, align 8
  %23 = getelementptr inbounds %struct.student, %struct.student* %22, i32 0, i32 0
  %24 = getelementptr inbounds [88 x i8], [88 x i8]* %23, i64 0, i64 0
  %25 = call i32 (i8*, ...) bitcast (i32 (...)* @gets to i32 (i8*, ...)*)(i8* %24)
  %26 = load %struct.student*, %struct.student** %2, align 8
  %27 = load %struct.student*, %struct.student** %1, align 8
  %28 = getelementptr inbounds %struct.student, %struct.student* %27, i32 0, i32 1
  store %struct.student* %26, %struct.student** %28, align 8
  br label %12

29:                                               ; preds = %12
  %30 = load %struct.student*, %struct.student** %2, align 8
  store %struct.student* %30, %struct.student** %3, align 8
  %31 = load %struct.student*, %struct.student** %3, align 8
  ret %struct.student* %31
}

; Function Attrs: nounwind
declare dso_local noalias i8* @malloc(i64) #1

declare dso_local i32 @gets(...) #2

; Function Attrs: nounwind readonly
declare dso_local i32 @strcmp(i8*, i8*) #3

; Function Attrs: noinline nounwind uwtable
define dso_local void @print(%struct.student* %0) #0 {
  %2 = alloca %struct.student*, align 8
  %3 = alloca %struct.student*, align 8
  store %struct.student* %0, %struct.student** %2, align 8
  %4 = load %struct.student*, %struct.student** %2, align 8
  store %struct.student* %4, %struct.student** %3, align 8
  br label %5

5:                                                ; preds = %8, %1
  %6 = load %struct.student*, %struct.student** %3, align 8
  %7 = icmp ne %struct.student* %6, null
  br i1 %7, label %8, label %16

8:                                                ; preds = %5
  %9 = load %struct.student*, %struct.student** %3, align 8
  %10 = getelementptr inbounds %struct.student, %struct.student* %9, i32 0, i32 0
  %11 = getelementptr inbounds [88 x i8], [88 x i8]* %10, i64 0, i64 0
  %12 = call i32 @puts(i8* %11)
  %13 = load %struct.student*, %struct.student** %3, align 8
  %14 = getelementptr inbounds %struct.student, %struct.student* %13, i32 0, i32 1
  %15 = load %struct.student*, %struct.student** %14, align 8
  store %struct.student* %15, %struct.student** %3, align 8
  br label %5

16:                                               ; preds = %5
  ret void
}

declare dso_local i32 @puts(i8*) #2

; Function Attrs: noinline nounwind uwtable
define dso_local void @main() #0 {
  %1 = alloca %struct.student*, align 8
  %2 = call %struct.student* @creat()
  store %struct.student* %2, %struct.student** %1, align 8
  %3 = load %struct.student*, %struct.student** %1, align 8
  call void @print(%struct.student* %3)
  ret void
}


!llvm.module.flags = !{!0}
!llvm.ident = !{!1}

!0 = !{i32 1, !"wchar_size", i32 4}
!1 = !{!"clang version 10.0.0-4ubuntu1 "}
